target datalayout = "e-m:e-p270:32:32-p271:32:32-p272:64:64-i64:64-i128:128-f80:128-n8:16:32:64-S128"
target triple = "x86_64-pc-linux-gnu"

%"class.cv::Mat_" = type { %"class.cv::Mat" }
%"class.cv::Mat" = type { i32, i32, i32, i32, ptr, ptr, ptr, ptr, ptr, ptr, %"struct.cv::MatSize", %"struct.cv::MatStep" }
%"struct.cv::MatSize" = type { ptr }
%"struct.cv::MatStep" = type { ptr, [2 x i64] }
%"class.cv::Range" = type { i32, i32 }
%"class.cv::ParallelLoopBody" = type { ptr }
%"struct.cv::optflow::DivergenceBody" = type { %"class.cv::ParallelLoopBody", %"class.cv::Mat_", %"class.cv::Mat_", %"class.cv::Mat_" }

@_ZTVN2cv7optflow14DivergenceBodyE = hidden unnamed_addr constant { [5 x ptr] } { [5 x ptr] [ptr null, ptr @_ZTIN2cv7optflow14DivergenceBodyE, ptr @_ZN2cv7optflow14DivergenceBodyD2Ev, ptr @_ZN2cv7optflow14DivergenceBodyD0Ev, ptr @_ZNK2cv7optflow14DivergenceBodyclERKNS_5RangeE] }, align 8
@_ZTVN2cv16ParallelLoopBodyE = available_externally unnamed_addr constant { [5 x ptr] } { [5 x ptr] [ptr null, ptr @_ZTIN2cv16ParallelLoopBodyE, ptr @_ZN2cv16ParallelLoopBodyD1Ev, ptr @_ZN2cv16ParallelLoopBodyD0Ev, ptr @__cxa_pure_virtual] }, align 8

; Function Attrs: inlinehint mustprogress nounwind uwtable
define linkonce_odr hidden void @_ZN2cv4Mat_IfEC2Ev(ptr noundef nonnull align 8 dereferenceable(96) %0) unnamed_addr #6 comdat align 2 {
  %2 = alloca ptr, align 8
  store ptr %0, ptr %2, align 8, !tbaa !86
  %3 = load ptr, ptr %2, align 8
  call void @_ZN2cv3MatC2Ev(ptr noundef nonnull align 8 dereferenceable(96) %3) #3
  %4 = getelementptr inbounds nuw %"class.cv::Mat", ptr %3, i32 0, i32 0
  %5 = load i32, ptr %4, align 8, !tbaa !66
  %6 = and i32 %5, -4096
  %7 = add nsw i32 %6, 5
  %8 = getelementptr inbounds nuw %"class.cv::Mat", ptr %3, i32 0, i32 0
  store i32 %7, ptr %8, align 8, !tbaa !66
  ret void
}

; Function Attrs: inlinehint mustprogress nounwind uwtable
define linkonce_odr hidden void @_ZN2cv16ParallelLoopBodyC2Ev(ptr noundef nonnull align 8 dereferenceable(8) %0) unnamed_addr #6 comdat align 2 {
  %2 = alloca ptr, align 8
  store ptr %0, ptr %2, align 8, !tbaa !191
  %3 = load ptr, ptr %2, align 8
  store ptr getelementptr inbounds inrange(-16, 24) ({ [5 x ptr] }, ptr @_ZTVN2cv16ParallelLoopBodyE, i32 0, i32 0, i32 2), ptr %3, align 8, !tbaa !8
  ret void
}

; Function Attrs: inlinehint mustprogress nounwind uwtable
define linkonce_odr hidden noundef nonnull align 4 dereferenceable(4) ptr @_ZN2cv4Mat_IfEclEii(ptr noundef nonnull align 8 dereferenceable(96) %0, i32 noundef %1, i32 noundef %2) #6 comdat align 2 {
  %4 = alloca ptr, align 8
  %5 = alloca i32, align 4
  %6 = alloca i32, align 4
  store ptr %0, ptr %4, align 8, !tbaa !86
  store i32 %1, ptr %5, align 4, !tbaa !55
  store i32 %2, ptr %6, align 4, !tbaa !55
  %7 = load ptr, ptr %4, align 8
  %8 = getelementptr inbounds nuw %"class.cv::Mat", ptr %7, i32 0, i32 4
  %9 = load ptr, ptr %8, align 8, !tbaa !112
  %10 = getelementptr inbounds nuw %"class.cv::Mat", ptr %7, i32 0, i32 11
  %11 = getelementptr inbounds nuw %"struct.cv::MatStep", ptr %10, i32 0, i32 0
  %12 = load ptr, ptr %11, align 8, !tbaa !113
  %13 = getelementptr inbounds i64, ptr %12, i64 0
  %14 = load i64, ptr %13, align 8, !tbaa !81
  %15 = load i32, ptr %5, align 4, !tbaa !55
  %16 = sext i32 %15 to i64
  %17 = mul i64 %14, %16
  %18 = getelementptr inbounds nuw i8, ptr %9, i64 %17
  %19 = load i32, ptr %6, align 4, !tbaa !55
  %20 = sext i32 %19 to i64
  %21 = getelementptr inbounds float, ptr %18, i64 %20
  ret ptr %21
}

; Function Attrs: inlinehint mustprogress nounwind uwtable
define linkonce_odr hidden noundef nonnull align 4 dereferenceable(4) ptr @_ZNK2cv4Mat_IfEclEii(ptr noundef nonnull align 8 dereferenceable(96) %0, i32 noundef %1, i32 noundef %2) #6 comdat align 2 {
  %4 = alloca ptr, align 8
  %5 = alloca i32, align 4
  %6 = alloca i32, align 4
  store ptr %0, ptr %4, align 8, !tbaa !86
  store i32 %1, ptr %5, align 4, !tbaa !55
  store i32 %2, ptr %6, align 4, !tbaa !55
  %7 = load ptr, ptr %4, align 8
  %8 = getelementptr inbounds nuw %"class.cv::Mat", ptr %7, i32 0, i32 4
  %9 = load ptr, ptr %8, align 8, !tbaa !112
  %10 = getelementptr inbounds nuw %"class.cv::Mat", ptr %7, i32 0, i32 11
  %11 = getelementptr inbounds nuw %"struct.cv::MatStep", ptr %10, i32 0, i32 0
  %12 = load ptr, ptr %11, align 8, !tbaa !113
  %13 = getelementptr inbounds i64, ptr %12, i64 0
  %14 = load i64, ptr %13, align 8, !tbaa !81
  %15 = load i32, ptr %5, align 4, !tbaa !55
  %16 = sext i32 %15 to i64
  %17 = mul i64 %14, %16
  %18 = getelementptr inbounds nuw i8, ptr %9, i64 %17
  %19 = load i32, ptr %6, align 4, !tbaa !55
  %20 = sext i32 %19 to i64
  %21 = getelementptr inbounds float, ptr %18, i64 %20
  ret ptr %21
}

; Function Attrs: inlinehint mustprogress nounwind uwtable
define linkonce_odr hidden void @_ZN2cv5RangeC2Eii(ptr noundef nonnull align 4 dereferenceable(8) %0, i32 noundef %1, i32 noundef %2) unnamed_addr #6 comdat align 2 {
  %4 = alloca ptr, align 8
  %5 = alloca i32, align 4
  %6 = alloca i32, align 4
  store ptr %0, ptr %4, align 8, !tbaa !103
  store i32 %1, ptr %5, align 4, !tbaa !55
  store i32 %2, ptr %6, align 4, !tbaa !55
  %7 = load ptr, ptr %4, align 8
  %8 = getelementptr inbounds nuw %"class.cv::Range", ptr %7, i32 0, i32 0
  %9 = load i32, ptr %5, align 4, !tbaa !55
  store i32 %9, ptr %8, align 4, !tbaa !105
  %10 = getelementptr inbounds nuw %"class.cv::Range", ptr %7, i32 0, i32 1
  %11 = load i32, ptr %6, align 4, !tbaa !55
  store i32 %11, ptr %10, align 4, !tbaa !107
  ret void
}

; Function Attrs: inlinehint mustprogress uwtable
define linkonce_odr hidden noundef nonnull align 8 dereferenceable(96) ptr @_ZN2cv4Mat_IfEaSERKS1_(ptr noundef nonnull align 8 dereferenceable(96) %0, ptr noundef nonnull align 8 dereferenceable(96) %1) #5 comdat align 2 {
  %3 = alloca ptr, align 8
  %4 = alloca ptr, align 8
  store ptr %0, ptr %3, align 8, !tbaa !86
  store ptr %1, ptr %4, align 8, !tbaa !86
  %5 = load ptr, ptr %3, align 8
  %6 = load ptr, ptr %4, align 8, !tbaa !86
  %7 = call noundef nonnull align 8 dereferenceable(96) ptr @_ZN2cv3MataSERKS0_(ptr noundef nonnull align 8 dereferenceable(96) %5, ptr noundef nonnull align 8 dereferenceable(96) %6)
  ret ptr %5
}

; Function Attrs: inlinehint mustprogress nounwind uwtable
define linkonce_odr hidden void @_ZN2cv7optflow14DivergenceBodyC2Ev(ptr noundef nonnull align 8 dereferenceable(296) %0) unnamed_addr #6 comdat align 2 {
  %2 = alloca ptr, align 8
  store ptr %0, ptr %2, align 8, !tbaa !122
  %3 = load ptr, ptr %2, align 8
  call void @_ZN2cv16ParallelLoopBodyC2Ev(ptr noundef nonnull align 8 dereferenceable(8) %3) #3
  store ptr getelementptr inbounds inrange(-16, 24) ({ [5 x ptr] }, ptr @_ZTVN2cv7optflow14DivergenceBodyE, i32 0, i32 0, i32 2), ptr %3, align 8, !tbaa !8
  %4 = getelementptr inbounds nuw %"struct.cv::optflow::DivergenceBody", ptr %3, i32 0, i32 1
  call void @_ZN2cv4Mat_IfEC2Ev(ptr noundef nonnull align 8 dereferenceable(96) %4) #3
  %5 = getelementptr inbounds nuw %"struct.cv::optflow::DivergenceBody", ptr %3, i32 0, i32 2
  call void @_ZN2cv4Mat_IfEC2Ev(ptr noundef nonnull align 8 dereferenceable(96) %5) #3
  %6 = getelementptr inbounds nuw %"struct.cv::optflow::DivergenceBody", ptr %3, i32 0, i32 3
  call void @_ZN2cv4Mat_IfEC2Ev(ptr noundef nonnull align 8 dereferenceable(96) %6) #3
  ret void
}

; Function Attrs: mustprogress uwtable
define internal void @_ZN2cv7optflowL10divergenceERKNS_4Mat_IfEES4_RS2_(ptr noundef nonnull align 8 dereferenceable(96) %0, ptr noundef nonnull align 8 dereferenceable(96) %1, ptr noundef nonnull align 8 dereferenceable(96) %2) #4 personality ptr @__gxx_personality_v0 {
  %4 = alloca ptr, align 8
  %5 = alloca ptr, align 8
  %6 = alloca ptr, align 8
  %7 = alloca %"struct.cv::optflow::DivergenceBody", align 8
  %8 = alloca ptr, align 8
  %9 = alloca i32, align 4
  %10 = alloca %"class.cv::Range", align 4
  %11 = alloca i32, align 4
  %12 = alloca i32, align 4
  store ptr %0, ptr %4, align 8, !tbaa !86
  store ptr %1, ptr %5, align 8, !tbaa !86
  store ptr %2, ptr %6, align 8, !tbaa !86
  call void @llvm.lifetime.start.p0(i64 296, ptr %7) #3
  call void @_ZN2cv7optflow14DivergenceBodyC2Ev(ptr noundef nonnull align 8 dereferenceable(296) %7) #3
  %13 = load ptr, ptr %4, align 8, !tbaa !86
  %14 = getelementptr inbounds nuw %"struct.cv::optflow::DivergenceBody", ptr %7, i32 0, i32 1
  %15 = invoke noundef nonnull align 8 dereferenceable(96) ptr @_ZN2cv4Mat_IfEaSERKS1_(ptr noundef nonnull align 8 dereferenceable(96) %14, ptr noundef nonnull align 8 dereferenceable(96) %13)
          to label %16 unwind label %37

16:                                               ; preds = %3
  %17 = load ptr, ptr %5, align 8, !tbaa !86
  %18 = getelementptr inbounds nuw %"struct.cv::optflow::DivergenceBody", ptr %7, i32 0, i32 2
  %19 = invoke noundef nonnull align 8 dereferenceable(96) ptr @_ZN2cv4Mat_IfEaSERKS1_(ptr noundef nonnull align 8 dereferenceable(96) %18, ptr noundef nonnull align 8 dereferenceable(96) %17)
          to label %20 unwind label %37

20:                                               ; preds = %16
  %21 = load ptr, ptr %6, align 8, !tbaa !86
  %22 = getelementptr inbounds nuw %"struct.cv::optflow::DivergenceBody", ptr %7, i32 0, i32 3
  %23 = invoke noundef nonnull align 8 dereferenceable(96) ptr @_ZN2cv4Mat_IfEaSERKS1_(ptr noundef nonnull align 8 dereferenceable(96) %22, ptr noundef nonnull align 8 dereferenceable(96) %21)
          to label %24 unwind label %37

24:                                               ; preds = %20
  call void @llvm.lifetime.start.p0(i64 8, ptr %10) #3
  %25 = load ptr, ptr %4, align 8, !tbaa !86
  %26 = getelementptr inbounds nuw %"class.cv::Mat", ptr %25, i32 0, i32 2
  %27 = load i32, ptr %26, align 8, !tbaa !57
  invoke void @_ZN2cv5RangeC2Eii(ptr noundef nonnull align 4 dereferenceable(8) %10, i32 noundef 1, i32 noundef %27)
          to label %28 unwind label %41

28:                                               ; preds = %24
  invoke void @_ZN2cv13parallel_for_ERKNS_5RangeERKNS_16ParallelLoopBodyEd(ptr noundef nonnull align 4 dereferenceable(8) %10, ptr noundef nonnull align 8 dereferenceable(8) %7, double noundef -1.000000e+00)
          to label %29 unwind label %41

29:                                               ; preds = %28
  call void @llvm.lifetime.end.p0(i64 8, ptr %10) #3
  call void @_ZN2cv7optflow14DivergenceBodyD2Ev(ptr noundef nonnull align 8 dereferenceable(296) %7) #3
  call void @llvm.lifetime.end.p0(i64 296, ptr %7) #3
  call void @llvm.lifetime.start.p0(i64 4, ptr %11) #3
  store i32 1, ptr %11, align 4, !tbaa !55
  br label %30

30:                                               ; preds = %65, %29
  %31 = load i32, ptr %11, align 4, !tbaa !55
  %32 = load ptr, ptr %4, align 8, !tbaa !86
  %33 = getelementptr inbounds nuw %"class.cv::Mat", ptr %32, i32 0, i32 3
  %34 = load i32, ptr %33, align 4, !tbaa !56
  %35 = icmp slt i32 %31, %34
  br i1 %35, label %46, label %36

36:                                               ; preds = %30
  call void @llvm.lifetime.end.p0(i64 4, ptr %11) #3
  br label %68

37:                                               ; preds = %20, %16, %3
  %38 = landingpad { ptr, i32 }
          cleanup
  %39 = extractvalue { ptr, i32 } %38, 0
  store ptr %39, ptr %8, align 8
  %40 = extractvalue { ptr, i32 } %38, 1
  store i32 %40, ptr %9, align 4
  br label %45

41:                                               ; preds = %28, %24
  %42 = landingpad { ptr, i32 }
          cleanup
  %43 = extractvalue { ptr, i32 } %42, 0
  store ptr %43, ptr %8, align 8
  %44 = extractvalue { ptr, i32 } %42, 1
  store i32 %44, ptr %9, align 4
  call void @llvm.lifetime.end.p0(i64 8, ptr %10) #3
  br label %45

45:                                               ; preds = %41, %37
  call void @_ZN2cv7optflow14DivergenceBodyD2Ev(ptr noundef nonnull align 8 dereferenceable(296) %7) #3
  call void @llvm.lifetime.end.p0(i64 296, ptr %7) #3
  br label %108

46:                                               ; preds = %30
  %47 = load ptr, ptr %4, align 8, !tbaa !86
  %48 = load i32, ptr %11, align 4, !tbaa !55
  %49 = call noundef nonnull align 4 dereferenceable(4) ptr @_ZNK2cv4Mat_IfEclEii(ptr noundef nonnull align 8 dereferenceable(96) %47, i32 noundef 0, i32 noundef %48)
  %50 = load float, ptr %49, align 4, !tbaa !91
  %51 = load ptr, ptr %4, align 8, !tbaa !86
  %52 = load i32, ptr %11, align 4, !tbaa !55
  %53 = sub nsw i32 %52, 1
  %54 = call noundef nonnull align 4 dereferenceable(4) ptr @_ZNK2cv4Mat_IfEclEii(ptr noundef nonnull align 8 dereferenceable(96) %51, i32 noundef 0, i32 noundef %53)
  %55 = load float, ptr %54, align 4, !tbaa !91
  %56 = fsub float %50, %55
  %57 = load ptr, ptr %5, align 8, !tbaa !86
  %58 = load i32, ptr %11, align 4, !tbaa !55
  %59 = call noundef nonnull align 4 dereferenceable(4) ptr @_ZNK2cv4Mat_IfEclEii(ptr noundef nonnull align 8 dereferenceable(96) %57, i32 noundef 0, i32 noundef %58)
  %60 = load float, ptr %59, align 4, !tbaa !91
  %61 = fadd float %56, %60
  %62 = load ptr, ptr %6, align 8, !tbaa !86
  %63 = load i32, ptr %11, align 4, !tbaa !55
  %64 = call noundef nonnull align 4 dereferenceable(4) ptr @_ZN2cv4Mat_IfEclEii(ptr noundef nonnull align 8 dereferenceable(96) %62, i32 noundef 0, i32 noundef %63)
  store float %61, ptr %64, align 4, !tbaa !91
  br label %65

65:                                               ; preds = %46
  %66 = load i32, ptr %11, align 4, !tbaa !55
  %67 = add nsw i32 %66, 1
  store i32 %67, ptr %11, align 4, !tbaa !55
  br label %30, !llvm.loop !156

68:                                               ; preds = %36
  call void @llvm.lifetime.start.p0(i64 4, ptr %12) #3
  store i32 1, ptr %12, align 4, !tbaa !55
  br label %69

69:                                               ; preds = %95, %68
  %70 = load i32, ptr %12, align 4, !tbaa !55
  %71 = load ptr, ptr %4, align 8, !tbaa !86
  %72 = getelementptr inbounds nuw %"class.cv::Mat", ptr %71, i32 0, i32 2
  %73 = load i32, ptr %72, align 8, !tbaa !57
  %74 = icmp slt i32 %70, %73
  br i1 %74, label %76, label %75

75:                                               ; preds = %69
  call void @llvm.lifetime.end.p0(i64 4, ptr %12) #3
  br label %98

76:                                               ; preds = %69
  %77 = load ptr, ptr %4, align 8, !tbaa !86
  %78 = load i32, ptr %12, align 4, !tbaa !55
  %79 = call noundef nonnull align 4 dereferenceable(4) ptr @_ZNK2cv4Mat_IfEclEii(ptr noundef nonnull align 8 dereferenceable(96) %77, i32 noundef %78, i32 noundef 0)
  %80 = load float, ptr %79, align 4, !tbaa !91
  %81 = load ptr, ptr %5, align 8, !tbaa !86
  %82 = load i32, ptr %12, align 4, !tbaa !55
  %83 = call noundef nonnull align 4 dereferenceable(4) ptr @_ZNK2cv4Mat_IfEclEii(ptr noundef nonnull align 8 dereferenceable(96) %81, i32 noundef %82, i32 noundef 0)
  %84 = load float, ptr %83, align 4, !tbaa !91
  %85 = fadd float %80, %84
  %86 = load ptr, ptr %5, align 8, !tbaa !86
  %87 = load i32, ptr %12, align 4, !tbaa !55
  %88 = sub nsw i32 %87, 1
  %89 = call noundef nonnull align 4 dereferenceable(4) ptr @_ZNK2cv4Mat_IfEclEii(ptr noundef nonnull align 8 dereferenceable(96) %86, i32 noundef %88, i32 noundef 0)
  %90 = load float, ptr %89, align 4, !tbaa !91
  %91 = fsub float %85, %90
  %92 = load ptr, ptr %6, align 8, !tbaa !86
  %93 = load i32, ptr %12, align 4, !tbaa !55
  %94 = call noundef nonnull align 4 dereferenceable(4) ptr @_ZN2cv4Mat_IfEclEii(ptr noundef nonnull align 8 dereferenceable(96) %92, i32 noundef %93, i32 noundef 0)
  store float %91, ptr %94, align 4, !tbaa !91
  br label %95

95:                                               ; preds = %76
  %96 = load i32, ptr %12, align 4, !tbaa !55
  %97 = add nsw i32 %96, 1
  store i32 %97, ptr %12, align 4, !tbaa !55
  br label %69, !llvm.loop !157

98:                                               ; preds = %75
  %99 = load ptr, ptr %4, align 8, !tbaa !86
  %100 = call noundef nonnull align 4 dereferenceable(4) ptr @_ZNK2cv4Mat_IfEclEii(ptr noundef nonnull align 8 dereferenceable(96) %99, i32 noundef 0, i32 noundef 0)
  %101 = load float, ptr %100, align 4, !tbaa !91
  %102 = load ptr, ptr %5, align 8, !tbaa !86
  %103 = call noundef nonnull align 4 dereferenceable(4) ptr @_ZNK2cv4Mat_IfEclEii(ptr noundef nonnull align 8 dereferenceable(96) %102, i32 noundef 0, i32 noundef 0)
  %104 = load float, ptr %103, align 4, !tbaa !91
  %105 = fadd float %101, %104
  %106 = load ptr, ptr %6, align 8, !tbaa !86
  %107 = call noundef nonnull align 4 dereferenceable(4) ptr @_ZN2cv4Mat_IfEclEii(ptr noundef nonnull align 8 dereferenceable(96) %106, i32 noundef 0, i32 noundef 0)
  store float %105, ptr %107, align 4, !tbaa !91
  ret void

108:                                              ; preds = %45
  %109 = load ptr, ptr %8, align 8
  %110 = load i32, ptr %9, align 4
  %111 = insertvalue { ptr, i32 } poison, ptr %109, 0
  %112 = insertvalue { ptr, i32 } %111, i32 %110, 1
  resume { ptr, i32 } %112
}