; Function Attrs: mustprogress uwtable
define internal fastcc void @_ZN2cv7optflowL10divergenceERKNS_4Mat_IfEES4_RS2_(ptr noundef nonnull align 8 dereferenceable(96) %0, ptr noundef nonnull align 8 dereferenceable(96) %1, ptr noundef nonnull align 8 dereferenceable(96) %2) unnamed_addr #3 personality ptr @__gxx_personality_v0 {
  %4 = alloca %"struct.cv::optflow::DivergenceBody", align 8
  %5 = alloca %"class.cv::Range", align 4
  call void @llvm.lifetime.start.p0(i64 296, ptr nonnull %4) #22
  store ptr getelementptr inbounds nuw inrange(-16, 24) (i8, ptr @_ZTVN2cv7optflow14DivergenceBodyE, i64 16), ptr %4, align 8, !tbaa !3
  %6 = getelementptr inbounds nuw i8, ptr %4, i64 8
  call void @_ZN2cv3MatC2Ev(ptr noundef nonnull align 8 dereferenceable(96) %6) #22
  %7 = load i32, ptr %6, align 8, !tbaa !42
  %8 = and i32 %7, -4096
  %9 = or disjoint i32 %8, 5
  store i32 %9, ptr %6, align 8, !tbaa !42
  %10 = getelementptr inbounds nuw i8, ptr %4, i64 104
  call void @_ZN2cv3MatC2Ev(ptr noundef nonnull align 8 dereferenceable(96) %10) #22
  %11 = load i32, ptr %10, align 8, !tbaa !42
  %12 = and i32 %11, -4096
  %13 = or disjoint i32 %12, 5
  store i32 %13, ptr %10, align 8, !tbaa !42
  %14 = getelementptr inbounds nuw i8, ptr %4, i64 200
  call void @_ZN2cv3MatC2Ev(ptr noundef nonnull align 8 dereferenceable(96) %14) #22
  %15 = load i32, ptr %14, align 8, !tbaa !42
  %16 = and i32 %15, -4096
  %17 = or disjoint i32 %16, 5
  store i32 %17, ptr %14, align 8, !tbaa !42
  %18 = invoke noundef nonnull align 8 dereferenceable(96) ptr @_ZN2cv3MataSERKS0_(ptr noundef nonnull align 8 dereferenceable(96) %6, ptr noundef nonnull align 8 dereferenceable(96) %0)
          to label %_ZN2cv4Mat_IfEaSERKS1_.exit unwind label %51

_ZN2cv4Mat_IfEaSERKS1_.exit:                      ; preds = %3
  %19 = invoke noundef nonnull align 8 dereferenceable(96) ptr @_ZN2cv3MataSERKS0_(ptr noundef nonnull align 8 dereferenceable(96) %10, ptr noundef nonnull align 8 dereferenceable(96) %1)
          to label %_ZN2cv4Mat_IfEaSERKS1_.exit34 unwind label %51

_ZN2cv4Mat_IfEaSERKS1_.exit34:                    ; preds = %_ZN2cv4Mat_IfEaSERKS1_.exit
  %20 = invoke noundef nonnull align 8 dereferenceable(96) ptr @_ZN2cv3MataSERKS0_(ptr noundef nonnull align 8 dereferenceable(96) %14, ptr noundef nonnull align 8 dereferenceable(96) %2)
          to label %_ZN2cv4Mat_IfEaSERKS1_.exit35 unwind label %51

_ZN2cv4Mat_IfEaSERKS1_.exit35:                    ; preds = %_ZN2cv4Mat_IfEaSERKS1_.exit34
  call void @llvm.lifetime.start.p0(i64 8, ptr nonnull %5) #22
  %21 = getelementptr inbounds nuw i8, ptr %0, i64 8
  %22 = load i32, ptr %21, align 8, !tbaa !72
  store i32 1, ptr %5, align 4, !tbaa !95
  %23 = getelementptr inbounds nuw i8, ptr %5, i64 4
  store i32 %22, ptr %23, align 4, !tbaa !97
  invoke void @_ZN2cv13parallel_for_ERKNS_5RangeERKNS_16ParallelLoopBodyEd(ptr noundef nonnull align 4 dereferenceable(8) %5, ptr noundef nonnull align 8 dereferenceable(8) %4, double noundef -1.000000e+00)
          to label %24 unwind label %53

24:                                               ; preds = %_ZN2cv4Mat_IfEaSERKS1_.exit35
  call void @llvm.lifetime.end.p0(i64 8, ptr nonnull %5) #22
  store ptr getelementptr inbounds nuw inrange(-16, 24) (i8, ptr @_ZTVN2cv7optflow14DivergenceBodyE, i64 16), ptr %4, align 8, !tbaa !3
  call void @_ZN2cv3MatD2Ev(ptr noundef nonnull align 8 dereferenceable(96) %14) #22
  call void @_ZN2cv3MatD2Ev(ptr noundef nonnull align 8 dereferenceable(96) %10) #22
  call void @_ZN2cv3MatD2Ev(ptr noundef nonnull align 8 dereferenceable(96) %6) #22
  call void @_ZN2cv16ParallelLoopBodyD2Ev(ptr noundef nonnull align 8 dereferenceable(296) %4) #22
  call void @llvm.lifetime.end.p0(i64 296, ptr nonnull %4) #22
  %25 = getelementptr inbounds nuw i8, ptr %0, i64 12
  %26 = load i32, ptr %25, align 4, !tbaa !71
  %27 = icmp sgt i32 %26, 1
  br i1 %27, label %.lr.ph, label %.preheader

.lr.ph:                                           ; preds = %24
  %28 = getelementptr inbounds nuw i8, ptr %0, i64 16
  %29 = load ptr, ptr %28, align 8, !tbaa !98
  %invariant.gep = getelementptr i8, ptr %29, i64 -4
  %30 = getelementptr inbounds nuw i8, ptr %1, i64 16
  %31 = load ptr, ptr %30, align 8, !tbaa !98
  %32 = getelementptr inbounds nuw i8, ptr %2, i64 16
  %33 = load ptr, ptr %32, align 8, !tbaa !98
  %wide.trip.count = zext nneg i32 %26 to i64
  br label %56

.preheader:                                       ; preds = %56, %24
  %34 = load i32, ptr %21, align 8, !tbaa !72
  %35 = icmp sgt i32 %34, 1
  %36 = getelementptr inbounds nuw i8, ptr %0, i64 16
  %37 = load ptr, ptr %36, align 8, !tbaa !98
  br i1 %35, label %.lr.ph38, label %.preheader.._crit_edge_crit_edge

.preheader.._crit_edge_crit_edge:                 ; preds = %.preheader
  %.phi.trans.insert45 = getelementptr inbounds nuw i8, ptr %1, i64 16
  %.pre46 = load ptr, ptr %.phi.trans.insert45, align 8, !tbaa !98
  %.phi.trans.insert47 = getelementptr inbounds nuw i8, ptr %2, i64 16
  %.pre48 = load ptr, ptr %.phi.trans.insert47, align 8, !tbaa !98
  br label %._crit_edge

.lr.ph38:                                         ; preds = %.preheader
  %38 = getelementptr inbounds nuw i8, ptr %0, i64 72
  %39 = load ptr, ptr %38, align 8, !tbaa !99
  %40 = load i64, ptr %39, align 8, !tbaa !100
  %41 = getelementptr inbounds nuw i8, ptr %1, i64 16
  %42 = load ptr, ptr %41, align 8, !tbaa !98
  %43 = getelementptr inbounds nuw i8, ptr %1, i64 72
  %44 = load ptr, ptr %43, align 8, !tbaa !99
  %45 = load i64, ptr %44, align 8, !tbaa !100
  %46 = getelementptr inbounds nuw i8, ptr %2, i64 16
  %47 = load ptr, ptr %46, align 8, !tbaa !98
  %48 = getelementptr inbounds nuw i8, ptr %2, i64 72
  %49 = load ptr, ptr %48, align 8, !tbaa !99
  %50 = load i64, ptr %49, align 8, !tbaa !100
  %wide.trip.count43 = zext nneg i32 %34 to i64
  br label %70

51:                                               ; preds = %_ZN2cv4Mat_IfEaSERKS1_.exit34, %_ZN2cv4Mat_IfEaSERKS1_.exit, %3
  %52 = landingpad { ptr, i32 }
          cleanup
  br label %55

53:                                               ; preds = %_ZN2cv4Mat_IfEaSERKS1_.exit35
  %54 = landingpad { ptr, i32 }
          cleanup
  call void @llvm.lifetime.end.p0(i64 8, ptr nonnull %5) #22
  br label %55

55:                                               ; preds = %53, %51
  %.pn = phi { ptr, i32 } [ %54, %53 ], [ %52, %51 ]
  call void @_ZN2cv7optflow14DivergenceBodyD2Ev(ptr noundef nonnull align 8 dereferenceable(296) %4) #22
  call void @llvm.lifetime.end.p0(i64 296, ptr nonnull %4) #22
  resume { ptr, i32 } %.pn

56:                                               ; preds = %.lr.ph, %56
  %indvars.iv = phi i64 [ 1, %.lr.ph ], [ %indvars.iv.next, %56 ]
  %57 = getelementptr inbounds nuw float, ptr %29, i64 %indvars.iv
  %58 = load float, ptr %57, align 4, !tbaa !101
  %gep = getelementptr float, ptr %invariant.gep, i64 %indvars.iv
  %59 = load float, ptr %gep, align 4, !tbaa !101
  %60 = fsub float %58, %59
  %61 = getelementptr inbounds nuw float, ptr %31, i64 %indvars.iv
  %62 = load float, ptr %61, align 4, !tbaa !101
  %63 = fadd float %60, %62
  %64 = getelementptr inbounds nuw float, ptr %33, i64 %indvars.iv
  store float %63, ptr %64, align 4, !tbaa !101
  %indvars.iv.next = add nuw nsw i64 %indvars.iv, 1
  %exitcond.not = icmp eq i64 %indvars.iv.next, %wide.trip.count
  br i1 %exitcond.not, label %.preheader, label %56, !llvm.loop !132

._crit_edge:                                      ; preds = %70, %.preheader.._crit_edge_crit_edge
  %65 = phi ptr [ %.pre48, %.preheader.._crit_edge_crit_edge ], [ %47, %70 ]
  %66 = phi ptr [ %.pre46, %.preheader.._crit_edge_crit_edge ], [ %42, %70 ]
  %67 = load float, ptr %37, align 4, !tbaa !101
  %68 = load float, ptr %66, align 4, !tbaa !101
  %69 = fadd float %67, %68
  store float %69, ptr %65, align 4, !tbaa !101
  ret void

70:                                               ; preds = %.lr.ph38, %70
  %indvars.iv40 = phi i64 [ 1, %.lr.ph38 ], [ %indvars.iv.next41, %70 ]
  %71 = mul i64 %40, %indvars.iv40
  %72 = getelementptr inbounds nuw i8, ptr %37, i64 %71
  %73 = load float, ptr %72, align 4, !tbaa !101
  %74 = mul i64 %45, %indvars.iv40
  %75 = getelementptr inbounds nuw i8, ptr %42, i64 %74
  %76 = load float, ptr %75, align 4, !tbaa !101
  %77 = fadd float %73, %76
  %78 = add nsw i64 %indvars.iv40, -1
  %79 = mul i64 %45, %78
  %80 = getelementptr inbounds nuw i8, ptr %42, i64 %79
  %81 = load float, ptr %80, align 4, !tbaa !101
  %82 = fsub float %77, %81
  %83 = mul i64 %50, %indvars.iv40
  %84 = getelementptr inbounds nuw i8, ptr %47, i64 %83
  store float %82, ptr %84, align 4, !tbaa !101
  %indvars.iv.next41 = add nuw nsw i64 %indvars.iv40, 1
  %exitcond44.not = icmp eq i64 %indvars.iv.next41, %wide.trip.count43
  br i1 %exitcond44.not, label %._crit_edge, label %70, !llvm.loop !133
}